target datalayout = "e-m:e-p270:32:32-p271:32:32-p272:64:64-i64:64-i128:128-f80:128-n8:16:32:64-S128"
target triple = "x86_64-pc-linux-gnu"

%struct.archive_string = type { ptr, i64, i64 }
%struct.archive_write_filter = type { i64, ptr, ptr, ptr, ptr, ptr, ptr, ptr, ptr, ptr, ptr, i32, i32, i32, i32 }
%struct.private_b64encode = type { i32, %struct.archive_string, %struct.archive_string, i64, i64, [57 x i8] }

@.str.10 = private unnamed_addr constant [6 x i8] c"====\0A\00", align 1

; Function Attrs: nounwind uwtable
define internal i32 @archive_filter_b64encode_close(ptr noundef %0) #0 {
  %2 = alloca ptr, align 8
  %3 = alloca ptr, align 8
  store ptr %0, ptr %2, align 8, !tbaa !11
  call void @llvm.lifetime.start.p0(i64 8, ptr %3) #7
  %4 = load ptr, ptr %2, align 8, !tbaa !11
  %5 = getelementptr inbounds nuw %struct.archive_write_filter, ptr %4, i32 0, i32 9
  %6 = load ptr, ptr %5, align 8, !tbaa !25
  store ptr %6, ptr %3, align 8, !tbaa !15
  %7 = load ptr, ptr %3, align 8, !tbaa !15
  %8 = getelementptr inbounds nuw %struct.private_b64encode, ptr %7, i32 0, i32 4
  %9 = load i64, ptr %8, align 8, !tbaa !42
  %10 = icmp ne i64 %9, 0
  br i1 %10, label %11, label %20

11:                                               ; preds = %1
  %12 = load ptr, ptr %3, align 8, !tbaa !15
  %13 = getelementptr inbounds nuw %struct.private_b64encode, ptr %12, i32 0, i32 2
  %14 = load ptr, ptr %3, align 8, !tbaa !15
  %15 = getelementptr inbounds nuw %struct.private_b64encode, ptr %14, i32 0, i32 5
  %16 = getelementptr inbounds [57 x i8], ptr %15, i64 0, i64 0
  %17 = load ptr, ptr %3, align 8, !tbaa !15
  %18 = getelementptr inbounds nuw %struct.private_b64encode, ptr %17, i32 0, i32 4
  %19 = load i64, ptr %18, align 8, !tbaa !42
  call void @la_b64_encode(ptr noundef %13, ptr noundef %16, i64 noundef %19)
  br label %20

20:                                               ; preds = %11, %1
  %21 = load ptr, ptr %3, align 8, !tbaa !15
  %22 = getelementptr inbounds nuw %struct.private_b64encode, ptr %21, i32 0, i32 2
  call void (ptr, ptr, ...) @archive_string_sprintf(ptr noundef %22, ptr noundef @.str.10)
  %23 = load ptr, ptr %2, align 8, !tbaa !11
  %24 = getelementptr inbounds nuw %struct.archive_write_filter, ptr %23, i32 0, i32 1
  %25 = load ptr, ptr %24, align 8, !tbaa !17
  %26 = call i32 @archive_write_set_bytes_in_last_block(ptr noundef %25, i32 noundef 1)
  %27 = load ptr, ptr %2, align 8, !tbaa !11
  %28 = getelementptr inbounds nuw %struct.archive_write_filter, ptr %27, i32 0, i32 2
  %29 = load ptr, ptr %28, align 8, !tbaa !48
  %30 = load ptr, ptr %3, align 8, !tbaa !15
  %31 = getelementptr inbounds nuw %struct.private_b64encode, ptr %30, i32 0, i32 2
  %32 = getelementptr inbounds nuw %struct.archive_string, ptr %31, i32 0, i32 0
  %33 = load ptr, ptr %32, align 8, !tbaa !49
  %34 = load ptr, ptr %3, align 8, !tbaa !15
  %35 = getelementptr inbounds nuw %struct.private_b64encode, ptr %34, i32 0, i32 2
  %36 = getelementptr inbounds nuw %struct.archive_string, ptr %35, i32 0, i32 1
  %37 = load i64, ptr %36, align 8, !tbaa !47
  %38 = call i32 @__archive_write_filter(ptr noundef %29, ptr noundef %33, i64 noundef %37)
  call void @llvm.lifetime.end.p0(i64 8, ptr %3) #7
  ret i32 %38
}